target datalayout = "e-m:e-p270:32:32-p271:32:32-p272:64:64-i64:64-i128:128-f80:128-n8:16:32:64-S128"
target triple = "x86_64-pc-linux-gnu"

%"class.sat::literal" = type { i32 }
%"class.std::function" = type { %"class.std::_Function_base", ptr }
%"class.std::_Function_base" = type { %"union.std::_Any_data", ptr }
%"union.std::_Any_data" = type { %"union.std::_Nocopy_types" }
%"union.std::_Nocopy_types" = type { { i64, i64 } }
%"class.std::function.1" = type { %"class.std::_Function_base", ptr }
%"class.std::function.4" = type { %"class.std::_Function_base", ptr }
%"class.smt::seq_axioms" = type { ptr, ptr, ptr, %class.arith_util, %class.seq_util, %"class.seq::skolem", %"class.seq::axioms", i8, %"class.std::function.6", %"class.std::function.8" }
%class.arith_util = type { ptr, ptr }
%class.seq_util = type { ptr, ptr, ptr, i32, [4 x i8], %"class.seq_util::str", %"class.seq_util::rex" }
%"class.seq_util::str" = type <{ ptr, ptr, i32, [4 x i8] }>
%"class.seq_util::rex" = type { ptr, ptr, i32, %class.vector, %class.ref_vector, %"struct.seq_util::rex::info", %"struct.seq_util::rex::info" }
%class.vector = type { ptr }
%class.ref_vector = type { %class.ref_vector_core }
%class.ref_vector_core = type { %class.ref_manager_wrapper, %class.ptr_vector }
%class.ref_manager_wrapper = type { ptr }
%class.ptr_vector = type { %class.vector.0 }
%class.vector.0 = type { ptr }
%"struct.seq_util::rex::info" = type { i32, i8, i32, i32 }
%"class.seq::skolem" = type { ptr, ptr, %class.seq_util, %class.arith_util, %class.symbol, %class.symbol, %class.symbol, %class.symbol, %class.symbol, %class.symbol, %class.symbol, %class.symbol, %class.symbol, %class.symbol, %class.symbol, %class.symbol, %class.symbol, %class.symbol, %class.symbol, %class.symbol, %class.symbol, %class.symbol, %class.symbol, %class.symbol, %class.symbol }
%class.symbol = type { ptr }
%"class.seq::axioms" = type { ptr, ptr, %class.arith_util, %class.seq_util, %"class.seq::skolem", %class.ref_vector, %class.ref_vector, %class.obj_map, %"class.std::function", %"class.std::function.1", %"class.std::function.4" }
%class.obj_map = type { %class.core_hashtable }
%class.core_hashtable = type <{ ptr, i32, i32, i32, [4 x i8] }>
%"class.std::function.6" = type { %"class.std::_Function_base", ptr }
%"class.std::function.8" = type { %"class.std::_Function_base", ptr }

@_ZN3smtL12true_literalE = internal global %"class.sat::literal" zeroinitializer, align 4
@_ZN3smtL13false_literalE = internal global %"class.sat::literal" zeroinitializer, align 4
@constinit = private constant [5 x %"class.sat::literal"] [%"class.sat::literal" { i32 -2 }, %"class.sat::literal" { i32 -2 }, %"class.sat::literal" { i32 -2 }, %"class.sat::literal" { i32 -2 }, %"class.sat::literal" { i32 -2 }], align 4

; Function Attrs: mustprogress nounwind uwtable
define linkonce_odr hidden noundef zeroext i1 @_ZNKSt14_Function_base8_M_emptyEv(ptr noundef nonnull align 8 dereferenceable(24) %0) #4 comdat align 2 {
  %2 = alloca ptr, align 8
  store ptr %0, ptr %2, align 8, !tbaa !101
  %3 = load ptr, ptr %2, align 8
  %4 = getelementptr inbounds nuw %"class.std::_Function_base", ptr %3, i32 0, i32 1
  %5 = load ptr, ptr %4, align 8, !tbaa !92
  %6 = icmp ne ptr %5, null
  %7 = xor i1 %6, true
  ret i1 %7
}

; Function Attrs: mustprogress nounwind uwtable
define linkonce_odr hidden noundef i32 @_ZNK6vectorIP4exprLb0EjE4sizeEv(ptr noundef nonnull align 8 dereferenceable(8) %0) #4 comdat align 2 {
  %2 = alloca i32, align 4
  %3 = alloca ptr, align 8
  store ptr %0, ptr %3, align 8, !tbaa !183
  %4 = load ptr, ptr %3, align 8
  %5 = getelementptr inbounds nuw %class.vector.0, ptr %4, i32 0, i32 0
  %6 = load ptr, ptr %5, align 8, !tbaa !185
  %7 = icmp eq ptr %6, null
  br i1 %7, label %8, label %9

8:                                                ; preds = %1
  store i32 0, ptr %2, align 4
  br label %14

9:                                                ; preds = %1
  %10 = getelementptr inbounds nuw %class.vector.0, ptr %4, i32 0, i32 0
  %11 = load ptr, ptr %10, align 8, !tbaa !185
  %12 = getelementptr inbounds i32, ptr %11, i64 -1
  %13 = load i32, ptr %12, align 4, !tbaa !8
  store i32 %13, ptr %2, align 4
  br label %14

14:                                               ; preds = %9, %8
  %15 = load i32, ptr %2, align 4
  ret i32 %15
}

; Function Attrs: mustprogress uwtable
define linkonce_odr hidden void @_ZNKSt8functionIFvN3sat7literalES1_S1_S1_S1_EEclES1_S1_S1_S1_S1_(ptr noundef nonnull align 8 dereferenceable(32) %0, i32 %1, i32 %2, i32 %3, i32 %4, i32 %5) #6 comdat align 2 {
  %7 = alloca %"class.sat::literal", align 4
  %8 = alloca %"class.sat::literal", align 4
  %9 = alloca %"class.sat::literal", align 4
  %10 = alloca %"class.sat::literal", align 4
  %11 = alloca %"class.sat::literal", align 4
  %12 = alloca ptr, align 8
  %13 = getelementptr inbounds nuw %"class.sat::literal", ptr %7, i32 0, i32 0
  store i32 %1, ptr %13, align 4
  %14 = getelementptr inbounds nuw %"class.sat::literal", ptr %8, i32 0, i32 0
  store i32 %2, ptr %14, align 4
  %15 = getelementptr inbounds nuw %"class.sat::literal", ptr %9, i32 0, i32 0
  store i32 %3, ptr %15, align 4
  %16 = getelementptr inbounds nuw %"class.sat::literal", ptr %10, i32 0, i32 0
  store i32 %4, ptr %16, align 4
  %17 = getelementptr inbounds nuw %"class.sat::literal", ptr %11, i32 0, i32 0
  store i32 %5, ptr %17, align 4
  store ptr %0, ptr %12, align 8, !tbaa !82
  %18 = load ptr, ptr %12, align 8
  %19 = call noundef zeroext i1 @_ZNKSt14_Function_base8_M_emptyEv(ptr noundef nonnull align 8 dereferenceable(24) %18)
  br i1 %19, label %20, label %21

20:                                               ; preds = %6
  call void @_ZSt25__throw_bad_function_callv() #21
  unreachable

21:                                               ; preds = %6
  %22 = getelementptr inbounds nuw %"class.std::function.6", ptr %18, i32 0, i32 1
  %23 = load ptr, ptr %22, align 8, !tbaa !84
  %24 = getelementptr inbounds nuw %"class.std::_Function_base", ptr %18, i32 0, i32 0
  call void %23(ptr noundef nonnull align 8 dereferenceable(16) %24, ptr noundef nonnull align 4 dereferenceable(4) %7, ptr noundef nonnull align 4 dereferenceable(4) %8, ptr noundef nonnull align 4 dereferenceable(4) %9, ptr noundef nonnull align 4 dereferenceable(4) %10, ptr noundef nonnull align 4 dereferenceable(4) %11)
  ret void
}

; Function Attrs: mustprogress nounwind uwtable
define linkonce_odr hidden noundef i32 @_ZNK15ref_vector_coreI4expr19ref_manager_wrapperIS0_11ast_managerEE4sizeEv(ptr noundef nonnull align 8 dereferenceable(16) %0) #4 comdat align 2 {
  %2 = alloca ptr, align 8
  store ptr %0, ptr %2, align 8, !tbaa !134
  %3 = load ptr, ptr %2, align 8
  %4 = getelementptr inbounds nuw %class.ref_vector_core, ptr %3, i32 0, i32 1
  %5 = call noundef i32 @_ZNK6vectorIP4exprLb0EjE4sizeEv(ptr noundef nonnull align 8 dereferenceable(8) %4)
  ret i32 %5
}

; Function Attrs: mustprogress nounwind uwtable
define linkonce_odr hidden noundef ptr @_ZNK6vectorIP4exprLb0EjE5beginEv(ptr noundef nonnull align 8 dereferenceable(8) %0) #4 comdat align 2 {
  %2 = alloca ptr, align 8
  store ptr %0, ptr %2, align 8, !tbaa !183
  %3 = load ptr, ptr %2, align 8
  %4 = getelementptr inbounds nuw %class.vector.0, ptr %3, i32 0, i32 0
  %5 = load ptr, ptr %4, align 8, !tbaa !185
  ret ptr %5
}

; Function Attrs: mustprogress uwtable
define linkonce_odr hidden void @_ZN3smt10seq_axioms9add_axiomEN3sat7literalES2_S2_S2_S2_(ptr noundef nonnull align 8 dereferenceable(1240) %0, i32 %1, i32 %2, i32 %3, i32 %4, i32 %5) #6 comdat align 2 {
  %7 = alloca %"class.sat::literal", align 4
  %8 = alloca %"class.sat::literal", align 4
  %9 = alloca %"class.sat::literal", align 4
  %10 = alloca %"class.sat::literal", align 4
  %11 = alloca %"class.sat::literal", align 4
  %12 = alloca ptr, align 8
  %13 = alloca %"class.sat::literal", align 4
  %14 = alloca %"class.sat::literal", align 4
  %15 = alloca %"class.sat::literal", align 4
  %16 = alloca %"class.sat::literal", align 4
  %17 = alloca %"class.sat::literal", align 4
  %18 = getelementptr inbounds nuw %"class.sat::literal", ptr %7, i32 0, i32 0
  store i32 %1, ptr %18, align 4
  %19 = getelementptr inbounds nuw %"class.sat::literal", ptr %8, i32 0, i32 0
  store i32 %2, ptr %19, align 4
  %20 = getelementptr inbounds nuw %"class.sat::literal", ptr %9, i32 0, i32 0
  store i32 %3, ptr %20, align 4
  %21 = getelementptr inbounds nuw %"class.sat::literal", ptr %10, i32 0, i32 0
  store i32 %4, ptr %21, align 4
  %22 = getelementptr inbounds nuw %"class.sat::literal", ptr %11, i32 0, i32 0
  store i32 %5, ptr %22, align 4
  store ptr %0, ptr %12, align 8, !tbaa !28
  %23 = load ptr, ptr %12, align 8
  %24 = getelementptr inbounds nuw %"class.smt::seq_axioms", ptr %23, i32 0, i32 8
  call void @llvm.memcpy.p0.p0.i64(ptr align 4 %13, ptr align 4 %7, i64 4, i1 false), !tbaa.struct !121
  call void @llvm.memcpy.p0.p0.i64(ptr align 4 %14, ptr align 4 %8, i64 4, i1 false), !tbaa.struct !121
  call void @llvm.memcpy.p0.p0.i64(ptr align 4 %15, ptr align 4 %9, i64 4, i1 false), !tbaa.struct !121
  call void @llvm.memcpy.p0.p0.i64(ptr align 4 %16, ptr align 4 %10, i64 4, i1 false), !tbaa.struct !121
  call void @llvm.memcpy.p0.p0.i64(ptr align 4 %17, ptr align 4 %11, i64 4, i1 false), !tbaa.struct !121
  %25 = getelementptr inbounds nuw %"class.sat::literal", ptr %13, i32 0, i32 0
  %26 = load i32, ptr %25, align 4
  %27 = getelementptr inbounds nuw %"class.sat::literal", ptr %14, i32 0, i32 0
  %28 = load i32, ptr %27, align 4
  %29 = getelementptr inbounds nuw %"class.sat::literal", ptr %15, i32 0, i32 0
  %30 = load i32, ptr %29, align 4
  %31 = getelementptr inbounds nuw %"class.sat::literal", ptr %16, i32 0, i32 0
  %32 = load i32, ptr %31, align 4
  %33 = getelementptr inbounds nuw %"class.sat::literal", ptr %17, i32 0, i32 0
  %34 = load i32, ptr %33, align 4
  call void @_ZNKSt8functionIFvN3sat7literalES1_S1_S1_S1_EEclES1_S1_S1_S1_S1_(ptr noundef nonnull align 8 dereferenceable(32) %24, i32 %26, i32 %28, i32 %30, i32 %32, i32 %34)
  ret void
}

; Function Attrs: inlinehint mustprogress nounwind uwtable
define linkonce_odr hidden noundef zeroext i1 @_ZN3satneERKNS_7literalES2_(ptr noundef nonnull align 4 dereferenceable(4) %0, ptr noundef nonnull align 4 dereferenceable(4) %1) #7 comdat {
  %3 = alloca ptr, align 8
  %4 = alloca ptr, align 8
  store ptr %0, ptr %3, align 8, !tbaa !3
  store ptr %1, ptr %4, align 8, !tbaa !3
  %5 = load ptr, ptr %3, align 8, !tbaa !3
  %6 = getelementptr inbounds nuw %"class.sat::literal", ptr %5, i32 0, i32 0
  %7 = load i32, ptr %6, align 4, !tbaa !14
  %8 = load ptr, ptr %4, align 8, !tbaa !3
  %9 = getelementptr inbounds nuw %"class.sat::literal", ptr %8, i32 0, i32 0
  %10 = load i32, ptr %9, align 4, !tbaa !14
  %11 = icmp ne i32 %7, %10
  ret i1 %11
}

; Function Attrs: inlinehint mustprogress nounwind uwtable
define linkonce_odr hidden noundef zeroext i1 @_ZN3sateqERKNS_7literalES2_(ptr noundef nonnull align 4 dereferenceable(4) %0, ptr noundef nonnull align 4 dereferenceable(4) %1) #7 comdat {
  %3 = alloca ptr, align 8
  %4 = alloca ptr, align 8
  store ptr %0, ptr %3, align 8, !tbaa !3
  store ptr %1, ptr %4, align 8, !tbaa !3
  %5 = load ptr, ptr %3, align 8, !tbaa !3
  %6 = getelementptr inbounds nuw %"class.sat::literal", ptr %5, i32 0, i32 0
  %7 = load i32, ptr %6, align 4, !tbaa !14
  %8 = load ptr, ptr %4, align 8, !tbaa !3
  %9 = getelementptr inbounds nuw %"class.sat::literal", ptr %8, i32 0, i32 0
  %10 = load i32, ptr %9, align 4, !tbaa !14
  %11 = icmp eq i32 %7, %10
  ret i1 %11
}

; Function Attrs: mustprogress uwtable
define linkonce_odr hidden noundef ptr @_ZNK15ref_vector_coreI4expr19ref_manager_wrapperIS0_11ast_managerEE3endEv(ptr noundef nonnull align 8 dereferenceable(16) %0) #6 comdat align 2 {
  %2 = alloca ptr, align 8
  store ptr %0, ptr %2, align 8, !tbaa !134
  %3 = load ptr, ptr %2, align 8
  %4 = call noundef ptr @_ZNK15ref_vector_coreI4expr19ref_manager_wrapperIS0_11ast_managerEE5beginEv(ptr noundef nonnull align 8 dereferenceable(16) %3)
  %5 = call noundef i32 @_ZNK15ref_vector_coreI4expr19ref_manager_wrapperIS0_11ast_managerEE4sizeEv(ptr noundef nonnull align 8 dereferenceable(16) %3)
  %6 = zext i32 %5 to i64
  %7 = getelementptr inbounds nuw ptr, ptr %4, i64 %6
  ret ptr %7
}

; Function Attrs: mustprogress uwtable
define linkonce_odr hidden noundef ptr @_ZNK15ref_vector_coreI4expr19ref_manager_wrapperIS0_11ast_managerEE5beginEv(ptr noundef nonnull align 8 dereferenceable(16) %0) #6 comdat align 2 {
  %2 = alloca ptr, align 8
  store ptr %0, ptr %2, align 8, !tbaa !134
  %3 = load ptr, ptr %2, align 8
  %4 = getelementptr inbounds nuw %class.ref_vector_core, ptr %3, i32 0, i32 1
  %5 = call noundef ptr @_ZNK6vectorIP4exprLb0EjE5beginEv(ptr noundef nonnull align 8 dereferenceable(8) %4)
  ret ptr %5
}

; Function Attrs: mustprogress uwtable
define hidden void @_ZN3smt10seq_axioms10add_clauseERK10ref_vectorI4expr11ast_managerE(ptr noundef nonnull align 8 dereferenceable(1240) %0, ptr noundef nonnull align 8 dereferenceable(16) %1) #6 align 2 {
  %3 = alloca ptr, align 8
  %4 = alloca ptr, align 8
  %5 = alloca ptr, align 8
  %6 = alloca ptr, align 8
  %7 = alloca [5 x %"class.sat::literal"], align 16
  %8 = alloca i32, align 4
  %9 = alloca ptr, align 8
  %10 = alloca ptr, align 8
  %11 = alloca ptr, align 8
  %12 = alloca i32, align 4
  %13 = alloca ptr, align 8
  %14 = alloca %"class.sat::literal", align 4
  %15 = alloca %"class.sat::literal", align 4
  %16 = alloca %"class.sat::literal", align 4
  %17 = alloca %"class.sat::literal", align 4
  %18 = alloca %"class.sat::literal", align 4
  %19 = alloca %"class.sat::literal", align 4
  %20 = alloca %"class.sat::literal", align 4
  store ptr %0, ptr %3, align 8, !tbaa !28
  store ptr %1, ptr %4, align 8, !tbaa !130
  %21 = load ptr, ptr %3, align 8
  call void @llvm.lifetime.start.p0(i64 8, ptr %5) #3
  store ptr null, ptr %5, align 8, !tbaa !105
  call void @llvm.lifetime.start.p0(i64 8, ptr %6) #3
  store ptr null, ptr %6, align 8, !tbaa !105
  call void @llvm.lifetime.start.p0(i64 20, ptr %7) #3
  call void @llvm.memcpy.p0.p0.i64(ptr align 16 %7, ptr align 4 @constinit, i64 20, i1 false), !tbaa.struct !132
  call void @llvm.lifetime.start.p0(i64 4, ptr %8) #3
  store i32 0, ptr %8, align 4, !tbaa !8
  call void @llvm.lifetime.start.p0(i64 8, ptr %9) #3
  %22 = load ptr, ptr %4, align 8, !tbaa !130
  store ptr %22, ptr %9, align 8, !tbaa !130
  call void @llvm.lifetime.start.p0(i64 8, ptr %10) #3
  %23 = load ptr, ptr %9, align 8, !tbaa !130
  %24 = call noundef ptr @_ZNK15ref_vector_coreI4expr19ref_manager_wrapperIS0_11ast_managerEE5beginEv(ptr noundef nonnull align 8 dereferenceable(16) %23)
  store ptr %24, ptr %10, align 8, !tbaa !120
  call void @llvm.lifetime.start.p0(i64 8, ptr %11) #3
  %25 = load ptr, ptr %9, align 8, !tbaa !130
  %26 = call noundef ptr @_ZNK15ref_vector_coreI4expr19ref_manager_wrapperIS0_11ast_managerEE3endEv(ptr noundef nonnull align 8 dereferenceable(16) %25)
  store ptr %26, ptr %11, align 8, !tbaa !120
  br label %27

27:                                               ; preds = %57, %2
  %28 = load ptr, ptr %10, align 8, !tbaa !120
  %29 = load ptr, ptr %11, align 8, !tbaa !120
  %30 = icmp ne ptr %28, %29
  br i1 %30, label %32, label %31

31:                                               ; preds = %27
  store i32 2, ptr %12, align 4
  br label %60

32:                                               ; preds = %27
  call void @llvm.lifetime.start.p0(i64 8, ptr %13) #3
  %33 = load ptr, ptr %10, align 8, !tbaa !120
  %34 = load ptr, ptr %33, align 8, !tbaa !105
  store ptr %34, ptr %13, align 8, !tbaa !105
  call void @llvm.lifetime.start.p0(i64 4, ptr %14) #3
  %35 = load ptr, ptr %13, align 8, !tbaa !105
  %36 = call i32 @_ZN3smt10seq_axioms10mk_literalEP4expr(ptr noundef nonnull align 8 dereferenceable(1240) %21, ptr noundef %35)
  %37 = getelementptr inbounds nuw %"class.sat::literal", ptr %14, i32 0, i32 0
  store i32 %36, ptr %37, align 4
  %38 = call noundef zeroext i1 @_ZN3sateqERKNS_7literalES2_(ptr noundef nonnull align 4 dereferenceable(4) %14, ptr noundef nonnull align 4 dereferenceable(4) @_ZN3smtL12true_literalE)
  br i1 %38, label %39, label %40

39:                                               ; preds = %32
  store i32 1, ptr %12, align 4
  br label %51

40:                                               ; preds = %32
  %41 = call noundef zeroext i1 @_ZN3satneERKNS_7literalES2_(ptr noundef nonnull align 4 dereferenceable(4) %14, ptr noundef nonnull align 4 dereferenceable(4) @_ZN3smtL13false_literalE)
  br i1 %41, label %42, label %50

42:                                               ; preds = %40
  call void @llvm.lifetime.start.p0(i64 4, ptr %15) #3
  %43 = load ptr, ptr %13, align 8, !tbaa !105
  %44 = call i32 @_ZN3smt10seq_axioms10mk_literalEP4expr(ptr noundef nonnull align 8 dereferenceable(1240) %21, ptr noundef %43)
  %45 = getelementptr inbounds nuw %"class.sat::literal", ptr %15, i32 0, i32 0
  store i32 %44, ptr %45, align 4
  %46 = load i32, ptr %8, align 4, !tbaa !8
  %47 = add i32 %46, 1
  store i32 %47, ptr %8, align 4, !tbaa !8
  %48 = zext i32 %46 to i64
  %49 = getelementptr inbounds nuw [5 x %"class.sat::literal"], ptr %7, i64 0, i64 %48
  call void @llvm.memcpy.p0.p0.i64(ptr align 4 %49, ptr align 4 %15, i64 4, i1 false), !tbaa.struct !121
  call void @llvm.lifetime.end.p0(i64 4, ptr %15) #3
  br label %50

50:                                               ; preds = %42, %40
  store i32 0, ptr %12, align 4
  br label %51

51:                                               ; preds = %50, %39
  call void @llvm.lifetime.end.p0(i64 4, ptr %14) #3
  %52 = load i32, ptr %12, align 4
  switch i32 %52, label %54 [
    i32 0, label %53
  ]

53:                                               ; preds = %51
  store i32 0, ptr %12, align 4
  br label %54

54:                                               ; preds = %53, %51
  call void @llvm.lifetime.end.p0(i64 8, ptr %13) #3
  %55 = load i32, ptr %12, align 4
  switch i32 %55, label %60 [
    i32 0, label %56
  ]

56:                                               ; preds = %54
  br label %57

57:                                               ; preds = %56
  %58 = load ptr, ptr %10, align 8, !tbaa !120
  %59 = getelementptr inbounds nuw ptr, ptr %58, i32 1
  store ptr %59, ptr %10, align 8, !tbaa !120
  br label %27

60:                                               ; preds = %54, %31
  call void @llvm.lifetime.end.p0(i64 8, ptr %11) #3
  call void @llvm.lifetime.end.p0(i64 8, ptr %10) #3
  call void @llvm.lifetime.end.p0(i64 8, ptr %9) #3
  %61 = load i32, ptr %12, align 4
  switch i32 %61, label %78 [
    i32 2, label %62
  ]

62:                                               ; preds = %60
  %63 = getelementptr inbounds [5 x %"class.sat::literal"], ptr %7, i64 0, i64 0
  call void @llvm.memcpy.p0.p0.i64(ptr align 4 %16, ptr align 16 %63, i64 4, i1 false), !tbaa.struct !121
  %64 = getelementptr inbounds [5 x %"class.sat::literal"], ptr %7, i64 0, i64 1
  call void @llvm.memcpy.p0.p0.i64(ptr align 4 %17, ptr align 4 %64, i64 4, i1 false), !tbaa.struct !121
  %65 = getelementptr inbounds [5 x %"class.sat::literal"], ptr %7, i64 0, i64 2
  call void @llvm.memcpy.p0.p0.i64(ptr align 4 %18, ptr align 8 %65, i64 4, i1 false), !tbaa.struct !121
  %66 = getelementptr inbounds [5 x %"class.sat::literal"], ptr %7, i64 0, i64 3
  call void @llvm.memcpy.p0.p0.i64(ptr align 4 %19, ptr align 4 %66, i64 4, i1 false), !tbaa.struct !121
  %67 = getelementptr inbounds [5 x %"class.sat::literal"], ptr %7, i64 0, i64 4
  call void @llvm.memcpy.p0.p0.i64(ptr align 4 %20, ptr align 16 %67, i64 4, i1 false), !tbaa.struct !121
  %68 = getelementptr inbounds nuw %"class.sat::literal", ptr %16, i32 0, i32 0
  %69 = load i32, ptr %68, align 4
  %70 = getelementptr inbounds nuw %"class.sat::literal", ptr %17, i32 0, i32 0
  %71 = load i32, ptr %70, align 4
  %72 = getelementptr inbounds nuw %"class.sat::literal", ptr %18, i32 0, i32 0
  %73 = load i32, ptr %72, align 4
  %74 = getelementptr inbounds nuw %"class.sat::literal", ptr %19, i32 0, i32 0
  %75 = load i32, ptr %74, align 4
  %76 = getelementptr inbounds nuw %"class.sat::literal", ptr %20, i32 0, i32 0
  %77 = load i32, ptr %76, align 4
  call void @_ZN3smt10seq_axioms9add_axiomEN3sat7literalES2_S2_S2_S2_(ptr noundef nonnull align 8 dereferenceable(1240) %21, i32 %69, i32 %71, i32 %73, i32 %75, i32 %77)
  store i32 0, ptr %12, align 4
  br label %78

78:                                               ; preds = %62, %60
  call void @llvm.lifetime.end.p0(i64 4, ptr %8) #3
  call void @llvm.lifetime.end.p0(i64 20, ptr %7) #3
  call void @llvm.lifetime.end.p0(i64 8, ptr %6) #3
  call void @llvm.lifetime.end.p0(i64 8, ptr %5) #3
  %79 = load i32, ptr %12, align 4
  switch i32 %79, label %81 [
    i32 0, label %80
    i32 1, label %80
  ]

80:                                               ; preds = %78, %78
  ret void

81:                                               ; preds = %78
  unreachable
}