; Function Attrs: mustprogress uwtable
define hidden void @_ZN3smt10seq_axioms10add_clauseERK10ref_vectorI4expr11ast_managerE(ptr noundef nonnull align 8 dereferenceable(1240) %0, ptr noundef nonnull readonly align 8 captures(none) dereferenceable(16) %1) local_unnamed_addr #4 align 2 {
  %3 = alloca %"class.sat::literal", align 4
  %4 = alloca %"class.sat::literal", align 4
  %5 = alloca %"class.sat::literal", align 4
  %6 = alloca %"class.sat::literal", align 4
  %7 = alloca %"class.sat::literal", align 4
  %8 = alloca [5 x %"class.sat::literal"], align 16
  call void @llvm.lifetime.start.p0(i64 20, ptr nonnull %8) #19
  call void @llvm.memcpy.p0.p0.i64(ptr noundef nonnull align 16 dereferenceable(20) %8, ptr noundef nonnull align 4 dereferenceable(20) @constinit, i64 20, i1 false), !tbaa.struct !123
  %9 = getelementptr inbounds nuw i8, ptr %1, i64 8
  %10 = load ptr, ptr %9, align 8, !tbaa !67
  %11 = icmp eq ptr %10, null
  br i1 %11, label %.critedge, label %_ZNK15ref_vector_coreI4expr19ref_manager_wrapperIS0_11ast_managerEE3endEv.exit

_ZNK15ref_vector_coreI4expr19ref_manager_wrapperIS0_11ast_managerEE3endEv.exit: ; preds = %2
  %12 = getelementptr inbounds i8, ptr %10, i64 -4
  %13 = load i32, ptr %12, align 4, !tbaa !83
  %14 = zext i32 %13 to i64
  %15 = getelementptr inbounds nuw ptr, ptr %10, i64 %14
  %.not27 = icmp eq i32 %13, 0
  br i1 %.not27, label %.critedge, label %.lr.ph

.lr.ph:                                           ; preds = %_ZNK15ref_vector_coreI4expr19ref_manager_wrapperIS0_11ast_managerEE3endEv.exit, %27
  %.029 = phi i32 [ %.1.ph, %27 ], [ 0, %_ZNK15ref_vector_coreI4expr19ref_manager_wrapperIS0_11ast_managerEE3endEv.exit ]
  %.02028 = phi ptr [ %28, %27 ], [ %10, %_ZNK15ref_vector_coreI4expr19ref_manager_wrapperIS0_11ast_managerEE3endEv.exit ]
  %16 = load ptr, ptr %.02028, align 8, !tbaa !84
  %17 = tail call i32 @_ZN3smt10seq_axioms10mk_literalEP4expr(ptr noundef nonnull align 8 dereferenceable(1240) %0, ptr noundef %16)
  %18 = load i32, ptr @_ZN3smtL12true_literalE, align 4, !tbaa !124
  %19 = icmp eq i32 %17, %18
  br i1 %19, label %.loopexit, label %20

20:                                               ; preds = %.lr.ph
  %21 = load i32, ptr @_ZN3smtL13false_literalE, align 4, !tbaa !124
  %.not26 = icmp eq i32 %17, %21
  br i1 %.not26, label %27, label %22

22:                                               ; preds = %20
  %23 = tail call i32 @_ZN3smt10seq_axioms10mk_literalEP4expr(ptr noundef nonnull align 8 dereferenceable(1240) %0, ptr noundef %16)
  %24 = add i32 %.029, 1
  %25 = zext i32 %.029 to i64
  %26 = getelementptr inbounds nuw [5 x %"class.sat::literal"], ptr %8, i64 0, i64 %25
  store i32 %23, ptr %26, align 4, !tbaa !83
  br label %27

27:                                               ; preds = %20, %22
  %.1.ph = phi i32 [ %.029, %20 ], [ %24, %22 ]
  %28 = getelementptr inbounds nuw i8, ptr %.02028, i64 8
  %.not = icmp eq ptr %28, %15
  br i1 %.not, label %.critedge.loopexit, label %.lr.ph

.critedge.loopexit:                               ; preds = %27
  %.sroa.06.0.copyload.pre = load i32, ptr %8, align 16, !tbaa !83
  %.phi.trans.insert = getelementptr inbounds nuw i8, ptr %8, i64 4
  %.sroa.05.0.copyload.pre = load i32, ptr %.phi.trans.insert, align 4, !tbaa !83
  %.phi.trans.insert32 = getelementptr inbounds nuw i8, ptr %8, i64 8
  %.sroa.04.0.copyload.pre = load i32, ptr %.phi.trans.insert32, align 8, !tbaa !83
  %.phi.trans.insert34 = getelementptr inbounds nuw i8, ptr %8, i64 12
  %.sroa.03.0.copyload.pre = load i32, ptr %.phi.trans.insert34, align 4, !tbaa !83
  %.phi.trans.insert36 = getelementptr inbounds nuw i8, ptr %8, i64 16
  %.sroa.0.0.copyload.pre = load i32, ptr %.phi.trans.insert36, align 16, !tbaa !83
  br label %.critedge

.critedge:                                        ; preds = %2, %.critedge.loopexit, %_ZNK15ref_vector_coreI4expr19ref_manager_wrapperIS0_11ast_managerEE3endEv.exit
  %.sroa.0.0.copyload = phi i32 [ %.sroa.0.0.copyload.pre, %.critedge.loopexit ], [ -2, %_ZNK15ref_vector_coreI4expr19ref_manager_wrapperIS0_11ast_managerEE3endEv.exit ], [ -2, %2 ]
  %.sroa.03.0.copyload = phi i32 [ %.sroa.03.0.copyload.pre, %.critedge.loopexit ], [ -2, %_ZNK15ref_vector_coreI4expr19ref_manager_wrapperIS0_11ast_managerEE3endEv.exit ], [ -2, %2 ]
  %.sroa.04.0.copyload = phi i32 [ %.sroa.04.0.copyload.pre, %.critedge.loopexit ], [ -2, %_ZNK15ref_vector_coreI4expr19ref_manager_wrapperIS0_11ast_managerEE3endEv.exit ], [ -2, %2 ]
  %.sroa.05.0.copyload = phi i32 [ %.sroa.05.0.copyload.pre, %.critedge.loopexit ], [ -2, %_ZNK15ref_vector_coreI4expr19ref_manager_wrapperIS0_11ast_managerEE3endEv.exit ], [ -2, %2 ]
  %.sroa.06.0.copyload = phi i32 [ %.sroa.06.0.copyload.pre, %.critedge.loopexit ], [ -2, %_ZNK15ref_vector_coreI4expr19ref_manager_wrapperIS0_11ast_managerEE3endEv.exit ], [ -2, %2 ]
  call void @llvm.lifetime.start.p0(i64 4, ptr nonnull %3)
  call void @llvm.lifetime.start.p0(i64 4, ptr nonnull %4)
  call void @llvm.lifetime.start.p0(i64 4, ptr nonnull %5)
  call void @llvm.lifetime.start.p0(i64 4, ptr nonnull %6)
  call void @llvm.lifetime.start.p0(i64 4, ptr nonnull %7)
  store i32 %.sroa.06.0.copyload, ptr %3, align 4
  store i32 %.sroa.05.0.copyload, ptr %4, align 4
  store i32 %.sroa.04.0.copyload, ptr %5, align 4
  store i32 %.sroa.03.0.copyload, ptr %6, align 4
  store i32 %.sroa.0.0.copyload, ptr %7, align 4
  %29 = getelementptr inbounds nuw i8, ptr %0, i64 1192
  %30 = load ptr, ptr %29, align 8, !tbaa !76
  %.not.i.i.i = icmp eq ptr %30, null
  br i1 %.not.i.i.i, label %31, label %_ZN3smt10seq_axioms9add_axiomEN3sat7literalES2_S2_S2_S2_.exit

31:                                               ; preds = %.critedge
  tail call void @_ZSt25__throw_bad_function_callv() #21
  unreachable

_ZN3smt10seq_axioms9add_axiomEN3sat7literalES2_S2_S2_S2_.exit: ; preds = %.critedge
  %32 = getelementptr inbounds nuw i8, ptr %0, i64 1176
  %33 = getelementptr inbounds nuw i8, ptr %0, i64 1200
  %34 = load ptr, ptr %33, align 8, !tbaa !126
  call void %34(ptr noundef nonnull align 8 dereferenceable(32) %32, ptr noundef nonnull align 4 dereferenceable(4) %3, ptr noundef nonnull align 4 dereferenceable(4) %4, ptr noundef nonnull align 4 dereferenceable(4) %5, ptr noundef nonnull align 4 dereferenceable(4) %6, ptr noundef nonnull align 4 dereferenceable(4) %7)
  call void @llvm.lifetime.end.p0(i64 4, ptr nonnull %3)
  call void @llvm.lifetime.end.p0(i64 4, ptr nonnull %4)
  call void @llvm.lifetime.end.p0(i64 4, ptr nonnull %5)
  call void @llvm.lifetime.end.p0(i64 4, ptr nonnull %6)
  call void @llvm.lifetime.end.p0(i64 4, ptr nonnull %7)
  br label %.loopexit

.loopexit:                                        ; preds = %.lr.ph, %_ZN3smt10seq_axioms9add_axiomEN3sat7literalES2_S2_S2_S2_.exit
  call void @llvm.lifetime.end.p0(i64 20, ptr nonnull %8) #19
  ret void
}